; ModuleID = '21/1946.c'
source_filename = "21/1946.c"
target datalayout = "e-m:e-p270:32:32-p271:32:32-p272:64:64-i64:64-f80:128-n8:16:32:64-S128"
target triple = "x86_64-pc-linux-gnu"

@.str = private unnamed_addr constant [3 x i8] c"%d\00", align 1
@.str.1 = private unnamed_addr constant [4 x i8] c"%lf\00", align 1
@.str.2 = private unnamed_addr constant [4 x i8] c"%d,\00", align 1

; Function Attrs: noinline nounwind uwtable
define dso_local void @main() #0 {
  %1 = alloca [300 x double], align 16
  %2 = alloca double, align 8
  %3 = alloca double, align 8
  %4 = alloca [300 x double], align 16
  %5 = alloca double, align 8
  %6 = alloca i32, align 4
  %7 = alloca i32, align 4
  %8 = alloca i32, align 4
  store double 0.000000e+00, double* %2, align 8
  %9 = call i32 (i8*, ...) @__isoc99_scanf(i8* getelementptr inbounds ([3 x i8], [3 x i8]* @.str, i64 0, i64 0), i32* %8)
  store i32 0, i32* %6, align 4
  br label %10

10:                                               ; preds = %25, %0
  %11 = load i32, i32* %6, align 4
  %12 = load i32, i32* %8, align 4
  %13 = icmp slt i32 %11, %12
  br i1 %13, label %14, label %28

14:                                               ; preds = %10
  %15 = load i32, i32* %6, align 4
  %16 = sext i32 %15 to i64
  %17 = getelementptr inbounds [300 x double], [300 x double]* %1, i64 0, i64 %16
  %18 = call i32 (i8*, ...) @__isoc99_scanf(i8* getelementptr inbounds ([4 x i8], [4 x i8]* @.str.1, i64 0, i64 0), double* %17)
  %19 = load double, double* %2, align 8
  %20 = load i32, i32* %6, align 4
  %21 = sext i32 %20 to i64
  %22 = getelementptr inbounds [300 x double], [300 x double]* %1, i64 0, i64 %21
  %23 = load double, double* %22, align 8
  %24 = fadd double %19, %23
  store double %24, double* %2, align 8
  br label %25

25:                                               ; preds = %14
  %26 = load i32, i32* %6, align 4
  %27 = add nsw i32 %26, 1
  store i32 %27, i32* %6, align 4
  br label %10

28:                                               ; preds = %10
  %29 = load double, double* %2, align 8
  %30 = load i32, i32* %8, align 4
  %31 = sitofp i32 %30 to double
  %32 = fdiv double %29, %31
  store double %32, double* %3, align 8
  store i32 0, i32* %6, align 4
  br label %33

33:                                               ; preds = %56, %28
  %34 = load i32, i32* %6, align 4
  %35 = load i32, i32* %8, align 4
  %36 = icmp slt i32 %34, %35
  br i1 %36, label %37, label %59

37:                                               ; preds = %33
  %38 = load i32, i32* %6, align 4
  %39 = sext i32 %38 to i64
  %40 = getelementptr inbounds [300 x double], [300 x double]* %1, i64 0, i64 %39
  %41 = load double, double* %40, align 8
  %42 = load double, double* %3, align 8
  %43 = fsub double %41, %42
  %44 = call double @llvm.fabs.f64(double %43)
  %45 = load double, double* %5, align 8
  %46 = fcmp ogt double %44, %45
  br i1 %46, label %47, label %55

47:                                               ; preds = %37
  %48 = load i32, i32* %6, align 4
  %49 = sext i32 %48 to i64
  %50 = getelementptr inbounds [300 x double], [300 x double]* %1, i64 0, i64 %49
  %51 = load double, double* %50, align 8
  %52 = load double, double* %3, align 8
  %53 = fsub double %51, %52
  %54 = call double @llvm.fabs.f64(double %53)
  store double %54, double* %5, align 8
  br label %55

55:                                               ; preds = %47, %37
  br label %56

56:                                               ; preds = %55
  %57 = load i32, i32* %6, align 4
  %58 = add nsw i32 %57, 1
  store i32 %58, i32* %6, align 4
  br label %33

59:                                               ; preds = %33
  store i32 0, i32* %7, align 4
  store i32 0, i32* %6, align 4
  br label %60

60:                                               ; preds = %86, %59
  %61 = load i32, i32* %6, align 4
  %62 = load i32, i32* %8, align 4
  %63 = icmp slt i32 %61, %62
  br i1 %63, label %64, label %89

64:                                               ; preds = %60
  %65 = load double, double* %5, align 8
  %66 = load i32, i32* %6, align 4
  %67 = sext i32 %66 to i64
  %68 = getelementptr inbounds [300 x double], [300 x double]* %1, i64 0, i64 %67
  %69 = load double, double* %68, align 8
  %70 = load double, double* %3, align 8
  %71 = fsub double %69, %70
  %72 = call double @llvm.fabs.f64(double %71)
  %73 = fsub double %65, %72
  %74 = fcmp ole double %73, 0x3EB0C6F7A0B5ED8D
  br i1 %74, label %75, label %85

75:                                               ; preds = %64
  %76 = load i32, i32* %6, align 4
  %77 = sext i32 %76 to i64
  %78 = getelementptr inbounds [300 x double], [300 x double]* %1, i64 0, i64 %77
  %79 = load double, double* %78, align 8
  %80 = load i32, i32* %7, align 4
  %81 = sext i32 %80 to i64
  %82 = getelementptr inbounds [300 x double], [300 x double]* %4, i64 0, i64 %81
  store double %79, double* %82, align 8
  %83 = load i32, i32* %7, align 4
  %84 = add nsw i32 %83, 1
  store i32 %84, i32* %7, align 4
  br label %85

85:                                               ; preds = %75, %64
  br label %86

86:                                               ; preds = %85
  %87 = load i32, i32* %6, align 4
  %88 = add nsw i32 %87, 1
  store i32 %88, i32* %6, align 4
  br label %60

89:                                               ; preds = %60
  store i32 0, i32* %6, align 4
  br label %90

90:                                               ; preds = %102, %89
  %91 = load i32, i32* %6, align 4
  %92 = load i32, i32* %7, align 4
  %93 = sub nsw i32 %92, 1
  %94 = icmp slt i32 %91, %93
  br i1 %94, label %95, label %105

95:                                               ; preds = %90
  %96 = load i32, i32* %6, align 4
  %97 = sext i32 %96 to i64
  %98 = getelementptr inbounds [300 x double], [300 x double]* %4, i64 0, i64 %97
  %99 = load double, double* %98, align 8
  %100 = fptosi double %99 to i32
  %101 = call i32 (i8*, ...) @printf(i8* getelementptr inbounds ([4 x i8], [4 x i8]* @.str.2, i64 0, i64 0), i32 %100)
  br label %102

102:                                              ; preds = %95
  %103 = load i32, i32* %6, align 4
  %104 = add nsw i32 %103, 1
  store i32 %104, i32* %6, align 4
  br label %90

105:                                              ; preds = %90
  %106 = load i32, i32* %7, align 4
  %107 = sub nsw i32 %106, 1
  %108 = sext i32 %107 to i64
  %109 = getelementptr inbounds [300 x double], [300 x double]* %4, i64 0, i64 %108
  %110 = load double, double* %109, align 8
  %111 = fptosi double %110 to i32
  %112 = call i32 (i8*, ...) @printf(i8* getelementptr inbounds ([3 x i8], [3 x i8]* @.str, i64 0, i64 0), i32 %111)
  ret void
}

declare dso_local i32 @__isoc99_scanf(i8*, ...) #1

; Function Attrs: nounwind readnone speculatable willreturn
declare double @llvm.fabs.f64(double) #2

declare dso_local i32 @printf(i8*, ...) #1


!llvm.module.flags = !{!0}
!llvm.ident = !{!1}

!0 = !{i32 1, !"wchar_size", i32 4}
!1 = !{!"clang version 10.0.0-4ubuntu1 "}
